target datalayout = "e-m:e-p270:32:32-p271:32:32-p272:64:64-i64:64-i128:128-f80:128-n8:16:32:64-S128"
target triple = "x86_64-pc-linux-gnu"

%struct._AwtGraphicsConfigData = type { i32, i64, %struct.XVisualInfo, i32, ptr, ptr, ptr, i64, i32, i32, ptr, i32, ptr, ptr, i32, %struct.XRenderPictFormat }
%struct.XVisualInfo = type { ptr, i64, i32, i32, i32, i64, i64, i64, i32, i32 }
%struct.XRenderPictFormat = type { i64, i32, i32, %struct.XRenderDirectFormat, i64 }
%struct.XRenderDirectFormat = type { i16, i16, i16, i16, i16, i16, i16, i16 }
%struct._ColorData = type { ptr, i32, ptr, ptr, ptr, ptr, ptr, ptr, ptr, ptr, i32, i32 }
%struct.ColorEntry = type { i8, i8, i8, i8 }
%struct.XColor = type { i64, i16, i16, i16, i8, i8 }

; Function Attrs: nounwind uwtable
define internal i32 @alloc_col(ptr noundef %0, i64 noundef %1, i32 noundef %2, i32 noundef %3, i32 noundef %4, i32 noundef %5, ptr noundef %6) #0 {
  %8 = alloca i32, align 4
  %9 = alloca ptr, align 8
  %10 = alloca i64, align 8
  %11 = alloca i32, align 4
  %12 = alloca i32, align 4
  %13 = alloca i32, align 4
  %14 = alloca i32, align 4
  %15 = alloca ptr, align 8
  %16 = alloca %struct.XColor, align 8
  store ptr %0, ptr %9, align 8
  store i64 %1, ptr %10, align 8
  store i32 %2, ptr %11, align 4
  store i32 %3, ptr %12, align 4
  store i32 %4, ptr %13, align 4
  store i32 %5, ptr %14, align 4
  store ptr %6, ptr %15, align 8
  %17 = load i32, ptr %11, align 4
  %18 = icmp slt i32 %17, 0
  br i1 %18, label %19, label %20

19:                                               ; preds = %7
  br label %28

20:                                               ; preds = %7
  %21 = load i32, ptr %11, align 4
  %22 = icmp sgt i32 %21, 255
  br i1 %22, label %23, label %24

23:                                               ; preds = %20
  br label %26

24:                                               ; preds = %20
  %25 = load i32, ptr %11, align 4
  br label %26

26:                                               ; preds = %24, %23
  %27 = phi i32 [ 255, %23 ], [ %25, %24 ]
  br label %28

28:                                               ; preds = %26, %19
  %29 = phi i32 [ 0, %19 ], [ %27, %26 ]
  store i32 %29, ptr %11, align 4
  %30 = load i32, ptr %12, align 4
  %31 = icmp slt i32 %30, 0
  br i1 %31, label %32, label %33

32:                                               ; preds = %28
  br label %41

33:                                               ; preds = %28
  %34 = load i32, ptr %12, align 4
  %35 = icmp sgt i32 %34, 255
  br i1 %35, label %36, label %37

36:                                               ; preds = %33
  br label %39

37:                                               ; preds = %33
  %38 = load i32, ptr %12, align 4
  br label %39

39:                                               ; preds = %37, %36
  %40 = phi i32 [ 255, %36 ], [ %38, %37 ]
  br label %41

41:                                               ; preds = %39, %32
  %42 = phi i32 [ 0, %32 ], [ %40, %39 ]
  store i32 %42, ptr %12, align 4
  %43 = load i32, ptr %13, align 4
  %44 = icmp slt i32 %43, 0
  br i1 %44, label %45, label %46

45:                                               ; preds = %41
  br label %54

46:                                               ; preds = %41
  %47 = load i32, ptr %13, align 4
  %48 = icmp sgt i32 %47, 255
  br i1 %48, label %49, label %50

49:                                               ; preds = %46
  br label %52

50:                                               ; preds = %46
  %51 = load i32, ptr %13, align 4
  br label %52

52:                                               ; preds = %50, %49
  %53 = phi i32 [ 255, %49 ], [ %51, %50 ]
  br label %54

54:                                               ; preds = %52, %45
  %55 = phi i32 [ 0, %45 ], [ %53, %52 ]
  store i32 %55, ptr %13, align 4
  %56 = getelementptr inbounds %struct.XColor, ptr %16, i32 0, i32 4
  store i8 7, ptr %56, align 2
  %57 = load i32, ptr %11, align 4
  %58 = shl i32 %57, 8
  %59 = load i32, ptr %11, align 4
  %60 = or i32 %58, %59
  %61 = trunc i32 %60 to i16
  %62 = getelementptr inbounds %struct.XColor, ptr %16, i32 0, i32 1
  store i16 %61, ptr %62, align 8
  %63 = load i32, ptr %12, align 4
  %64 = shl i32 %63, 8
  %65 = load i32, ptr %12, align 4
  %66 = or i32 %64, %65
  %67 = trunc i32 %66 to i16
  %68 = getelementptr inbounds %struct.XColor, ptr %16, i32 0, i32 2
  store i16 %67, ptr %68, align 2
  %69 = load i32, ptr %13, align 4
  %70 = shl i32 %69, 8
  %71 = load i32, ptr %13, align 4
  %72 = or i32 %70, %71
  %73 = trunc i32 %72 to i16
  %74 = getelementptr inbounds %struct.XColor, ptr %16, i32 0, i32 3
  store i16 %73, ptr %74, align 4
  %75 = load ptr, ptr %9, align 8
  %76 = load i64, ptr %10, align 8
  %77 = call i32 @XAllocColor(ptr noundef %75, i64 noundef %76, ptr noundef %16)
  %78 = icmp ne i32 %77, 0
  br i1 %78, label %79, label %236

79:                                               ; preds = %54
  %80 = load i32, ptr %14, align 4
  %81 = icmp sge i32 %80, 0
  br i1 %81, label %82, label %102

82:                                               ; preds = %79
  %83 = getelementptr inbounds %struct.XColor, ptr %16, i32 0, i32 0
  %84 = load i64, ptr %83, align 8
  %85 = load i32, ptr %14, align 4
  %86 = sext i32 %85 to i64
  %87 = icmp ne i64 %84, %86
  br i1 %87, label %88, label %102

88:                                               ; preds = %82
  %89 = load ptr, ptr %15, align 8
  %90 = getelementptr inbounds %struct._AwtGraphicsConfigData, ptr %89, i32 0, i32 12
  %91 = load ptr, ptr %90, align 8
  %92 = getelementptr inbounds %struct._ColorData, ptr %91, i32 0, i32 0
  %93 = load ptr, ptr %92, align 8
  %94 = load i32, ptr %14, align 4
  %95 = sext i32 %94 to i64
  %96 = getelementptr inbounds %struct.ColorEntry, ptr %93, i64 %95
  %97 = getelementptr inbounds %struct.ColorEntry, ptr %96, i32 0, i32 3
  store i8 2, ptr %97, align 1
  %98 = load ptr, ptr %9, align 8
  %99 = load i64, ptr %10, align 8
  %100 = getelementptr inbounds %struct.XColor, ptr %16, i32 0, i32 0
  %101 = call i32 @XFreeColors(ptr noundef %98, i64 noundef %99, ptr noundef %100, i32 noundef 1, i64 noundef 0)
  store i32 -1, ptr %8, align 4
  br label %242

102:                                              ; preds = %82, %79
  %103 = getelementptr inbounds %struct.XColor, ptr %16, i32 0, i32 0
  %104 = load i64, ptr %103, align 8
  %105 = icmp ugt i64 %104, 255
  br i1 %105, label %106, label %116

106:                                              ; preds = %102
  %107 = load ptr, ptr %9, align 8
  %108 = load i64, ptr %10, align 8
  %109 = getelementptr inbounds %struct.XColor, ptr %16, i32 0, i32 0
  %110 = call i32 @XFreeColors(ptr noundef %107, i64 noundef %108, ptr noundef %109, i32 noundef 1, i64 noundef 0)
  %111 = load i32, ptr %11, align 4
  %112 = load i32, ptr %12, align 4
  %113 = load i32, ptr %13, align 4
  %114 = load ptr, ptr %15, align 8
  %115 = call i32 @awt_color_match(i32 noundef %111, i32 noundef %112, i32 noundef %113, ptr noundef %114)
  store i32 %115, ptr %8, align 4
  br label %242

116:                                              ; preds = %102
  %117 = load ptr, ptr %15, align 8
  %118 = getelementptr inbounds %struct._AwtGraphicsConfigData, ptr %117, i32 0, i32 12
  %119 = load ptr, ptr %118, align 8
  %120 = getelementptr inbounds %struct._ColorData, ptr %119, i32 0, i32 0
  %121 = load ptr, ptr %120, align 8
  %122 = getelementptr inbounds %struct.XColor, ptr %16, i32 0, i32 0
  %123 = load i64, ptr %122, align 8
  %124 = getelementptr inbounds %struct.ColorEntry, ptr %121, i64 %123
  %125 = getelementptr inbounds %struct.ColorEntry, ptr %124, i32 0, i32 3
  store i8 3, ptr %125, align 1
  %126 = getelementptr inbounds %struct.XColor, ptr %16, i32 0, i32 1
  %127 = load i16, ptr %126, align 8
  %128 = zext i16 %127 to i32
  %129 = ashr i32 %128, 8
  %130 = trunc i32 %129 to i8
  %131 = load ptr, ptr %15, align 8
  %132 = getelementptr inbounds %struct._AwtGraphicsConfigData, ptr %131, i32 0, i32 12
  %133 = load ptr, ptr %132, align 8
  %134 = getelementptr inbounds %struct._ColorData, ptr %133, i32 0, i32 0
  %135 = load ptr, ptr %134, align 8
  %136 = getelementptr inbounds %struct.XColor, ptr %16, i32 0, i32 0
  %137 = load i64, ptr %136, align 8
  %138 = getelementptr inbounds %struct.ColorEntry, ptr %135, i64 %137
  %139 = getelementptr inbounds %struct.ColorEntry, ptr %138, i32 0, i32 0
  store i8 %130, ptr %139, align 1
  %140 = getelementptr inbounds %struct.XColor, ptr %16, i32 0, i32 2
  %141 = load i16, ptr %140, align 2
  %142 = zext i16 %141 to i32
  %143 = ashr i32 %142, 8
  %144 = trunc i32 %143 to i8
  %145 = load ptr, ptr %15, align 8
  %146 = getelementptr inbounds %struct._AwtGraphicsConfigData, ptr %145, i32 0, i32 12
  %147 = load ptr, ptr %146, align 8
  %148 = getelementptr inbounds %struct._ColorData, ptr %147, i32 0, i32 0
  %149 = load ptr, ptr %148, align 8
  %150 = getelementptr inbounds %struct.XColor, ptr %16, i32 0, i32 0
  %151 = load i64, ptr %150, align 8
  %152 = getelementptr inbounds %struct.ColorEntry, ptr %149, i64 %151
  %153 = getelementptr inbounds %struct.ColorEntry, ptr %152, i32 0, i32 1
  store i8 %144, ptr %153, align 1
  %154 = getelementptr inbounds %struct.XColor, ptr %16, i32 0, i32 3
  %155 = load i16, ptr %154, align 4
  %156 = zext i16 %155 to i32
  %157 = ashr i32 %156, 8
  %158 = trunc i32 %157 to i8
  %159 = load ptr, ptr %15, align 8
  %160 = getelementptr inbounds %struct._AwtGraphicsConfigData, ptr %159, i32 0, i32 12
  %161 = load ptr, ptr %160, align 8
  %162 = getelementptr inbounds %struct._ColorData, ptr %161, i32 0, i32 0
  %163 = load ptr, ptr %162, align 8
  %164 = getelementptr inbounds %struct.XColor, ptr %16, i32 0, i32 0
  %165 = load i64, ptr %164, align 8
  %166 = getelementptr inbounds %struct.ColorEntry, ptr %163, i64 %165
  %167 = getelementptr inbounds %struct.ColorEntry, ptr %166, i32 0, i32 2
  store i8 %158, ptr %167, align 1
  %168 = load ptr, ptr %15, align 8
  %169 = getelementptr inbounds %struct._AwtGraphicsConfigData, ptr %168, i32 0, i32 12
  %170 = load ptr, ptr %169, align 8
  %171 = getelementptr inbounds %struct._ColorData, ptr %170, i32 0, i32 2
  %172 = load ptr, ptr %171, align 8
  %173 = icmp ne ptr %172, null
  br i1 %173, label %174, label %232

174:                                              ; preds = %116
  %175 = getelementptr inbounds %struct.XColor, ptr %16, i32 0, i32 0
  %176 = load i64, ptr %175, align 8
  %177 = trunc i64 %176 to i8
  %178 = load ptr, ptr %15, align 8
  %179 = getelementptr inbounds %struct._AwtGraphicsConfigData, ptr %178, i32 0, i32 12
  %180 = load ptr, ptr %179, align 8
  %181 = getelementptr inbounds %struct._ColorData, ptr %180, i32 0, i32 3
  %182 = load ptr, ptr %181, align 8
  %183 = getelementptr inbounds %struct.XColor, ptr %16, i32 0, i32 0
  %184 = load i64, ptr %183, align 8
  %185 = getelementptr inbounds i8, ptr %182, i64 %184
  store i8 %177, ptr %185, align 1
  %186 = load ptr, ptr %15, align 8
  %187 = getelementptr inbounds %struct._AwtGraphicsConfigData, ptr %186, i32 0, i32 12
  %188 = load ptr, ptr %187, align 8
  %189 = getelementptr inbounds %struct._ColorData, ptr %188, i32 0, i32 0
  %190 = load ptr, ptr %189, align 8
  %191 = getelementptr inbounds %struct.XColor, ptr %16, i32 0, i32 0
  %192 = load i64, ptr %191, align 8
  %193 = getelementptr inbounds %struct.ColorEntry, ptr %190, i64 %192
  %194 = getelementptr inbounds %struct.ColorEntry, ptr %193, i32 0, i32 0
  %195 = load i8, ptr %194, align 1
  %196 = zext i8 %195 to i32
  %197 = shl i32 %196, 16
  %198 = or i32 -16777216, %197
  %199 = load ptr, ptr %15, align 8
  %200 = getelementptr inbounds %struct._AwtGraphicsConfigData, ptr %199, i32 0, i32 12
  %201 = load ptr, ptr %200, align 8
  %202 = getelementptr inbounds %struct._ColorData, ptr %201, i32 0, i32 0
  %203 = load ptr, ptr %202, align 8
  %204 = getelementptr inbounds %struct.XColor, ptr %16, i32 0, i32 0
  %205 = load i64, ptr %204, align 8
  %206 = getelementptr inbounds %struct.ColorEntry, ptr %203, i64 %205
  %207 = getelementptr inbounds %struct.ColorEntry, ptr %206, i32 0, i32 1
  %208 = load i8, ptr %207, align 1
  %209 = zext i8 %208 to i32
  %210 = shl i32 %209, 8
  %211 = or i32 %198, %210
  %212 = load ptr, ptr %15, align 8
  %213 = getelementptr inbounds %struct._AwtGraphicsConfigData, ptr %212, i32 0, i32 12
  %214 = load ptr, ptr %213, align 8
  %215 = getelementptr inbounds %struct._ColorData, ptr %214, i32 0, i32 0
  %216 = load ptr, ptr %215, align 8
  %217 = getelementptr inbounds %struct.XColor, ptr %16, i32 0, i32 0
  %218 = load i64, ptr %217, align 8
  %219 = getelementptr inbounds %struct.ColorEntry, ptr %216, i64 %218
  %220 = getelementptr inbounds %struct.ColorEntry, ptr %219, i32 0, i32 2
  %221 = load i8, ptr %220, align 1
  %222 = zext i8 %221 to i32
  %223 = or i32 %211, %222
  %224 = load ptr, ptr %15, align 8
  %225 = getelementptr inbounds %struct._AwtGraphicsConfigData, ptr %224, i32 0, i32 12
  %226 = load ptr, ptr %225, align 8
  %227 = getelementptr inbounds %struct._ColorData, ptr %226, i32 0, i32 2
  %228 = load ptr, ptr %227, align 8
  %229 = getelementptr inbounds %struct.XColor, ptr %16, i32 0, i32 0
  %230 = load i64, ptr %229, align 8
  %231 = getelementptr inbounds i32, ptr %228, i64 %230
  store i32 %223, ptr %231, align 4
  br label %232

232:                                              ; preds = %174, %116
  %233 = getelementptr inbounds %struct.XColor, ptr %16, i32 0, i32 0
  %234 = load i64, ptr %233, align 8
  %235 = trunc i64 %234 to i32
  store i32 %235, ptr %8, align 4
  br label %242

236:                                              ; preds = %54
  %237 = load i32, ptr %11, align 4
  %238 = load i32, ptr %12, align 4
  %239 = load i32, ptr %13, align 4
  %240 = load ptr, ptr %15, align 8
  %241 = call i32 @awt_color_match(i32 noundef %237, i32 noundef %238, i32 noundef %239, ptr noundef %240)
  store i32 %241, ptr %8, align 4
  br label %242

242:                                              ; preds = %236, %232, %106, %88
  %243 = load i32, ptr %8, align 4
  ret i32 %243
}