; Function Attrs: nounwind uwtable
define internal fastcc i32 @alloc_col(ptr noundef %0, i64 noundef %1, i32 noundef %2, i32 noundef %3, i32 noundef %4, i32 noundef %5, ptr nocapture noundef readonly %6) unnamed_addr #6 {
  %8 = alloca %struct.XColor, align 8
  %9 = tail call i32 @llvm.smax.i32(i32 %2, i32 0)
  %10 = tail call i32 @llvm.smax.i32(i32 %3, i32 0)
  %11 = tail call i32 @llvm.smax.i32(i32 %4, i32 0)
  %12 = getelementptr inbounds i8, ptr %8, i64 14
  store i8 7, ptr %12, align 2
  %13 = shl i32 %9, 8
  %14 = or i32 %13, %9
  %15 = trunc i32 %14 to i16
  %16 = getelementptr inbounds i8, ptr %8, i64 8
  store i16 %15, ptr %16, align 8
  %17 = shl i32 %10, 8
  %18 = or i32 %17, %10
  %19 = trunc i32 %18 to i16
  %20 = getelementptr inbounds i8, ptr %8, i64 10
  store i16 %19, ptr %20, align 2
  %21 = shl i32 %11, 8
  %22 = or i32 %21, %11
  %23 = trunc i32 %22 to i16
  %24 = getelementptr inbounds i8, ptr %8, i64 12
  store i16 %23, ptr %24, align 4
  %25 = call i32 @XAllocColor(ptr noundef %0, i64 noundef %1, ptr noundef nonnull %8) #14
  %.not = icmp eq i32 %25, 0
  br i1 %.not, label %99, label %26

26:                                               ; preds = %7
  %27 = icmp sgt i32 %5, -1
  %28 = load i64, ptr %8, align 8
  br i1 %27, label %29, label %thread-pre-split

29:                                               ; preds = %26
  %30 = zext nneg i32 %5 to i64
  %.not46 = icmp eq i64 %28, %30
  br i1 %.not46, label %thread-pre-split, label %31

31:                                               ; preds = %29
  %32 = getelementptr inbounds i8, ptr %6, i64 144
  %33 = load ptr, ptr %32, align 8
  %34 = load ptr, ptr %33, align 8
  %35 = getelementptr inbounds %struct.ColorEntry, ptr %34, i64 %30, i32 3
  store i8 2, ptr %35, align 1
  %36 = call i32 @XFreeColors(ptr noundef %0, i64 noundef %1, ptr noundef nonnull %8, i32 noundef 1, i64 noundef 0) #14
  br label %101

thread-pre-split:                                 ; preds = %26, %29
  %37 = icmp ugt i64 %28, 255
  br i1 %37, label %38, label %41

38:                                               ; preds = %thread-pre-split
  %39 = call i32 @XFreeColors(ptr noundef %0, i64 noundef %1, ptr noundef nonnull %8, i32 noundef 1, i64 noundef 0) #14
  %40 = call i32 @awt_color_match(i32 noundef %9, i32 noundef %10, i32 noundef %11, ptr noundef %6)
  br label %101

41:                                               ; preds = %thread-pre-split
  %42 = getelementptr inbounds i8, ptr %6, i64 144
  %43 = load ptr, ptr %42, align 8
  %44 = load ptr, ptr %43, align 8
  %45 = getelementptr inbounds %struct.ColorEntry, ptr %44, i64 %28, i32 3
  store i8 3, ptr %45, align 1
  %46 = load i16, ptr %16, align 8
  %47 = lshr i16 %46, 8
  %48 = trunc nuw i16 %47 to i8
  %49 = load ptr, ptr %42, align 8
  %50 = load ptr, ptr %49, align 8
  %51 = load i64, ptr %8, align 8
  %52 = getelementptr inbounds %struct.ColorEntry, ptr %50, i64 %51
  store i8 %48, ptr %52, align 1
  %53 = load i16, ptr %20, align 2
  %54 = lshr i16 %53, 8
  %55 = trunc nuw i16 %54 to i8
  %56 = load ptr, ptr %42, align 8
  %57 = load ptr, ptr %56, align 8
  %58 = load i64, ptr %8, align 8
  %59 = getelementptr inbounds %struct.ColorEntry, ptr %57, i64 %58, i32 1
  store i8 %55, ptr %59, align 1
  %60 = load i16, ptr %24, align 4
  %61 = lshr i16 %60, 8
  %62 = trunc nuw i16 %61 to i8
  %63 = load ptr, ptr %42, align 8
  %64 = load ptr, ptr %63, align 8
  %65 = load i64, ptr %8, align 8
  %66 = getelementptr inbounds %struct.ColorEntry, ptr %64, i64 %65, i32 2
  store i8 %62, ptr %66, align 1
  %67 = load ptr, ptr %42, align 8
  %68 = getelementptr inbounds i8, ptr %67, i64 16
  %69 = load ptr, ptr %68, align 8
  %.not47 = icmp eq ptr %69, null
  br i1 %.not47, label %96, label %70

70:                                               ; preds = %41
  %71 = load i64, ptr %8, align 8
  %72 = trunc i64 %71 to i8
  %73 = getelementptr inbounds i8, ptr %67, i64 24
  %74 = load ptr, ptr %73, align 8
  %75 = getelementptr inbounds i8, ptr %74, i64 %71
  store i8 %72, ptr %75, align 1
  %76 = load ptr, ptr %42, align 8
  %77 = load ptr, ptr %76, align 8
  %78 = load i64, ptr %8, align 8
  %79 = getelementptr inbounds %struct.ColorEntry, ptr %77, i64 %78
  %80 = load i8, ptr %79, align 1
  %81 = zext i8 %80 to i32
  %82 = shl nuw nsw i32 %81, 16
  %83 = getelementptr inbounds i8, ptr %79, i64 1
  %84 = load i8, ptr %83, align 1
  %85 = zext i8 %84 to i32
  %86 = shl nuw nsw i32 %85, 8
  %87 = getelementptr inbounds i8, ptr %79, i64 2
  %88 = load i8, ptr %87, align 1
  %89 = zext i8 %88 to i32
  %90 = or disjoint i32 %82, %86
  %91 = or disjoint i32 %90, %89
  %92 = or disjoint i32 %91, -16777216
  %93 = getelementptr inbounds i8, ptr %76, i64 16
  %94 = load ptr, ptr %93, align 8
  %95 = getelementptr inbounds i32, ptr %94, i64 %78
  store i32 %92, ptr %95, align 4
  br label %96

96:                                               ; preds = %70, %41
  %97 = load i64, ptr %8, align 8
  %98 = trunc i64 %97 to i32
  br label %101

99:                                               ; preds = %7
  %100 = call i32 @awt_color_match(i32 noundef %9, i32 noundef %10, i32 noundef %11, ptr noundef %6)
  br label %101

101:                                              ; preds = %99, %96, %38, %31
  %.0 = phi i32 [ -1, %31 ], [ %40, %38 ], [ %98, %96 ], [ %100, %99 ]
  ret i32 %.0
}